; Function Attrs: mustprogress uwtable
define void @_ZN3gmx21AbstractOptionStorage8startSetEv(ptr noundef nonnull align 8 dereferenceable(98) %0) local_unnamed_addr #0 align 2 personality ptr @__gxx_personality_v0 {
  %2 = alloca %"class.gmx::InvalidInputError", align 8
  %3 = alloca %"class.gmx::ExceptionInitializer", align 8
  %4 = alloca %"class.gmx::ExceptionInfo", align 8
  %5 = getelementptr inbounds nuw i8, ptr %0, i64 96
  %6 = load i8, ptr %5, align 8, !tbaa !28, !range !58, !noundef !59
  %7 = trunc nuw i8 %6 to i1
  br i1 %7, label %8, label %9

8:                                                ; preds = %1
  tail call void @_ZN3gmx8internal13assertHandlerEPKcS2_S2_S2_i(ptr noundef nonnull @.str.7, ptr noundef nonnull @.str.8, ptr noundef nonnull @"__PRETTY_FUNCTION__._ZZN3gmx21AbstractOptionStorage8startSetEvENK3$_0clEv", ptr noundef nonnull @.str.1, i32 noundef 106) #30
  unreachable

9:                                                ; preds = %1
  %10 = getelementptr inbounds nuw i8, ptr %0, i64 72
  %11 = load i64, ptr %10, align 8, !tbaa !15
  %12 = and i64 %11, 41
  %or.cond19.not = icmp eq i64 %12, 1
  br i1 %or.cond19.not, label %13, label %24

13:                                               ; preds = %9
  %14 = tail call ptr @__cxa_allocate_exception(i64 24) #29
  call void @llvm.lifetime.start.p0(i64 56, ptr nonnull %3) #29
  invoke void @_ZN3gmx20ExceptionInitializerC2EPKc(ptr noundef nonnull align 8 dereferenceable(56) %3, ptr noundef nonnull @.str.2)
          to label %15 unwind label %.thread

15:                                               ; preds = %13
  invoke void @_ZN3gmx16GromacsExceptionC2ERKNS_20ExceptionInitializerE(ptr noundef nonnull align 8 dereferenceable(24) %2, ptr noundef nonnull align 8 dereferenceable(56) %3)
          to label %16 unwind label %.thread14

16:                                               ; preds = %15
  store ptr getelementptr inbounds nuw inrange(-16, 32) (i8, ptr @_ZTVN3gmx17InvalidInputErrorE, i64 16), ptr %2, align 8, !tbaa !3
  call void @llvm.lifetime.start.p0(i64 32, ptr nonnull %4) #29
  store ptr getelementptr inbounds nuw inrange(-16, 16) (i8, ptr @_ZTVN3gmx13ExceptionInfoINS_22ExceptionInfoLocation_ENS_13ThrowLocationEEE, i64 16), ptr %4, align 8, !tbaa !3
  %17 = getelementptr inbounds nuw i8, ptr %4, i64 8
  store ptr @__PRETTY_FUNCTION__._ZN3gmx21AbstractOptionStorage8startSetEv, ptr %17, align 8, !tbaa !30
  %.sroa.4.0..sroa_idx = getelementptr inbounds nuw i8, ptr %4, i64 16
  store ptr @.str.1, ptr %.sroa.4.0..sroa_idx, align 8, !tbaa !30
  %.sroa.5.0..sroa_idx = getelementptr inbounds nuw i8, ptr %4, i64 24
  store i32 112, ptr %.sroa.5.0..sroa_idx, align 8, !tbaa !31
  invoke void @_ZN3gmxlsINS_17InvalidInputErrorENS_22ExceptionInfoLocation_ENS_13ThrowLocationEEENSt9enable_ifIXsr3stdE12is_base_of_vINS_16GromacsExceptionET_EES6_E4typeES6_RKNS_13ExceptionInfoIT0_T1_EE(ptr dead_on_unwind writable sret(%"class.gmx::InvalidInputError") align 8 %14, ptr noundef nonnull %2, ptr noundef nonnull align 8 dereferenceable(32) %4)
          to label %18 unwind label %21

18:                                               ; preds = %16
  invoke void @__cxa_throw(ptr %14, ptr nonnull @_ZTIN3gmx17InvalidInputErrorE, ptr nonnull @_ZN3gmx16GromacsExceptionD2Ev) #30
          to label %30 unwind label %21

.thread:                                          ; preds = %13
  %19 = landingpad { ptr, i32 }
          cleanup
  br label %.sink.split

.thread14:                                        ; preds = %15
  %20 = landingpad { ptr, i32 }
          cleanup
  call void @_ZN3gmx20ExceptionInitializerD2Ev(ptr noundef nonnull align 8 dereferenceable(56) %3) #29
  br label %.sink.split

21:                                               ; preds = %16, %18
  %.0 = phi i1 [ false, %18 ], [ true, %16 ]
  %22 = landingpad { ptr, i32 }
          cleanup
  call void @_ZN3gmx8internal14IExceptionInfoD2Ev(ptr noundef nonnull align 8 dereferenceable(32) %4) #29
  call void @llvm.lifetime.end.p0(i64 32, ptr nonnull %4) #29
  call void @_ZN3gmx16GromacsExceptionD2Ev(ptr noundef nonnull align 8 dereferenceable(24) %2) #29
  call void @_ZN3gmx20ExceptionInitializerD2Ev(ptr noundef nonnull align 8 dereferenceable(56) %3) #29
  call void @llvm.lifetime.end.p0(i64 56, ptr nonnull %3) #29
  br i1 %.0, label %23, label %29

.sink.split:                                      ; preds = %.thread, %.thread14
  %.pn.pn13.ph = phi { ptr, i32 } [ %20, %.thread14 ], [ %19, %.thread ]
  call void @llvm.lifetime.end.p0(i64 56, ptr nonnull %3) #29
  br label %23

23:                                               ; preds = %.sink.split, %21
  %.pn.pn13 = phi { ptr, i32 } [ %22, %21 ], [ %.pn.pn13.ph, %.sink.split ]
  call void @__cxa_free_exception(ptr %14) #29
  br label %29

24:                                               ; preds = %9
  %25 = load ptr, ptr %0, align 8, !tbaa !3
  %26 = getelementptr inbounds nuw i8, ptr %25, i64 72
  %27 = load ptr, ptr %26, align 8
  tail call void %27(ptr noundef nonnull align 8 dereferenceable(98) %0)
  store i8 1, ptr %5, align 8, !tbaa !28
  %28 = getelementptr inbounds nuw i8, ptr %0, i64 97
  store i8 0, ptr %28, align 1, !tbaa !29
  ret void

29:                                               ; preds = %21, %23
  %.pn.pn12 = phi { ptr, i32 } [ %22, %21 ], [ %.pn.pn13, %23 ]
  resume { ptr, i32 } %.pn.pn12

30:                                               ; preds = %18
  unreachable
}